; Function Attrs: mustprogress uwtable
define hidden void @_ZN11realclosure7manager3negERNS_3numE(ptr noundef nonnull readonly align 8 captures(none) dereferenceable(8) %0, ptr noundef nonnull align 8 dereferenceable(8) %1) local_unnamed_addr #5 align 2 personality ptr @__gxx_personality_v0 {
  %3 = alloca %"class.realclosure::save_interval_ctx", align 8
  call void @llvm.lifetime.start.p0(i64 8, ptr nonnull %3) #24
  %4 = load ptr, ptr %0, align 8, !tbaa !11
  store ptr %4, ptr %3, align 8, !tbaa !91
  invoke void @_ZN11realclosure7manager3imp3negERNS_3numE(ptr noundef nonnull align 8 dereferenceable(1497) %4, ptr noundef nonnull align 8 dereferenceable(8) %1)
          to label %5 unwind label %11

5:                                                ; preds = %2
  %6 = getelementptr inbounds nuw i8, ptr %4, i64 1392
  invoke void @_ZN11realclosure7manager3imp23restore_saved_intervalsINS_5valueEEEvR10ptr_vectorIT_E(ptr noundef nonnull align 8 dereferenceable(1497) %4, ptr noundef nonnull align 8 dereferenceable(8) %6)
          to label %.noexc.i unwind label %8

.noexc.i:                                         ; preds = %5
  %7 = getelementptr inbounds nuw i8, ptr %4, i64 1400
  invoke void @_ZN11realclosure7manager3imp23restore_saved_intervalsINS_9extensionEEEvR10ptr_vectorIT_E(ptr noundef nonnull align 8 dereferenceable(1497) %4, ptr noundef nonnull align 8 dereferenceable(8) %7)
          to label %_ZN11realclosure17save_interval_ctxD2Ev.exit unwind label %8

8:                                                ; preds = %.noexc.i, %5
  %9 = landingpad { ptr, i32 }
          catch ptr null
  %10 = extractvalue { ptr, i32 } %9, 0
  tail call void @__clang_call_terminate(ptr %10) #25
  unreachable

_ZN11realclosure17save_interval_ctxD2Ev.exit:     ; preds = %.noexc.i
  call void @llvm.lifetime.end.p0(i64 8, ptr nonnull %3) #24
  ret void

11:                                               ; preds = %2
  %12 = landingpad { ptr, i32 }
          cleanup
  call void @_ZN11realclosure17save_interval_ctxD2Ev(ptr noundef nonnull align 8 dereferenceable(8) %3) #24
  call void @llvm.lifetime.end.p0(i64 8, ptr nonnull %3) #24
  resume { ptr, i32 } %12
}